	.file	"binarycheck.c"
	.text
	.section	.rodata
.LC0:
	.string	"OK"
.LC1:
	.string	"NOK"
	.text
	.globl	checkLicense
	.type	checkLicense, @function
checkLicense:
.LFB0:
	.cfi_startproc
	pushq	%rbp
	.cfi_def_cfa_offset 16
	.cfi_offset 6, -16
	movq	%rsp, %rbp
	.cfi_def_cfa_register 6
	subq	$16, %rsp
	movl	%edi, -4(%rbp)
	cmpl	$0, -4(%rbp)
	je	.L2
	leaq	.LC0(%rip), %rdi
	call	puts@PLT
	jmp	.L4
.L2:
	leaq	.LC1(%rip), %rdi
	call	puts@PLT
.L4:
	nop
	leave
	.cfi_def_cfa 7, 8
	ret
	.cfi_endproc
.LFE0:
	.size	checkLicense, .-checkLicense
	.globl	main
	.type	main, @function
main:
.LFB1:
	.cfi_startproc
	pushq	%rbp
	.cfi_def_cfa_offset 16
	.cfi_offset 6, -16
	movq	%rsp, %rbp
	.cfi_def_cfa_register 6
	subq	$32, %rsp
	movl	%edi, -20(%rbp)
	movq	%rsi, -32(%rbp)
	movl	$1, -4(%rbp)
	movl	-4(%rbp), %eax
	movl	%eax, %edi
	call	checkLicense
	movl	$0, %eax
	leave
	.cfi_def_cfa 7, 8
	ret
	.cfi_endproc
.LFE1:
	.size	main, .-main
	.ident	"GCC: (Ubuntu 7.5.0-3ubuntu1~18.04) 7.5.0"
	.section	.note.GNU-stack,"",@progbits
